; Function Attrs: nounwind ssp uwtable
define dso_local i32 @crypto_aead_chacha20poly1305_ietf_decrypt_detached(ptr noundef %0, ptr readnone captures(none) %1, ptr noundef nonnull %2, i64 noundef %3, ptr noundef nonnull %4, ptr noundef %5, i64 noundef %6, ptr noundef nonnull %7, ptr noundef nonnull %8) local_unnamed_addr #0 {
  %10 = alloca %struct.crypto_onetimeauth_poly1305_state, align 16
  %11 = alloca [64 x i8], align 16
  %12 = alloca [8 x i8], align 8
  %13 = alloca [16 x i8], align 16
  call void @llvm.lifetime.start.p0(i64 256, ptr nonnull %10) #6
  call void @llvm.lifetime.start.p0(i64 64, ptr nonnull %11) #6
  call void @llvm.lifetime.start.p0(i64 8, ptr nonnull %12) #6
  call void @llvm.lifetime.start.p0(i64 16, ptr nonnull %13) #6
  %14 = call i32 @crypto_stream_chacha20_ietf(ptr noundef nonnull %11, i64 noundef 64, ptr noundef nonnull %7, ptr noundef nonnull %8) #6
  %15 = call i32 @crypto_onetimeauth_poly1305_init(ptr noundef nonnull %10, ptr noundef nonnull %11) #6
  call void @sodium_memzero(ptr noundef nonnull %11, i64 noundef 64) #6
  %16 = call i32 @crypto_onetimeauth_poly1305_update(ptr noundef nonnull %10, ptr noundef %5, i64 noundef %6) #6
  %17 = sub i64 0, %6
  %18 = and i64 %17, 15
  %19 = call i32 @crypto_onetimeauth_poly1305_update(ptr noundef nonnull %10, ptr noundef nonnull @_pad0, i64 noundef %18) #6
  %20 = call i32 @crypto_onetimeauth_poly1305_update(ptr noundef nonnull %10, ptr noundef nonnull %2, i64 noundef %3) #6
  %21 = sub i64 0, %3
  %22 = and i64 %21, 15
  %23 = call i32 @crypto_onetimeauth_poly1305_update(ptr noundef nonnull %10, ptr noundef nonnull @_pad0, i64 noundef %22) #6
  store i64 %6, ptr %12, align 8
  %24 = call i32 @crypto_onetimeauth_poly1305_update(ptr noundef nonnull %10, ptr noundef nonnull %12, i64 noundef 8) #6
  store i64 %3, ptr %12, align 8
  %25 = call i32 @crypto_onetimeauth_poly1305_update(ptr noundef nonnull %10, ptr noundef nonnull %12, i64 noundef 8) #6
  %26 = call i32 @crypto_onetimeauth_poly1305_final(ptr noundef nonnull %10, ptr noundef nonnull %13) #6
  call void @sodium_memzero(ptr noundef nonnull %10, i64 noundef 256) #6
  %27 = call i32 @crypto_verify_16(ptr noundef nonnull %13, ptr noundef nonnull %4) #6
  call void @sodium_memzero(ptr noundef nonnull %13, i64 noundef 16) #6
  %28 = icmp eq ptr %0, null
  br i1 %28, label %33, label %29

29:                                               ; preds = %9
  %.not = icmp eq i32 %27, 0
  br i1 %.not, label %31, label %30

30:                                               ; preds = %29
  call void @llvm.memset.p0.i64(ptr noundef nonnull align 1 %0, i8 noundef 0, i64 noundef %3, i1 noundef false) #6
  br label %33

31:                                               ; preds = %29
  %32 = call i32 @crypto_stream_chacha20_ietf_xor_ic(ptr noundef nonnull %0, ptr noundef nonnull %2, i64 noundef %3, ptr noundef nonnull %7, i32 noundef 1, ptr noundef nonnull %8) #6
  br label %33

33:                                               ; preds = %9, %31, %30
  %.0 = phi i32 [ -1, %30 ], [ 0, %31 ], [ %27, %9 ]
  call void @llvm.lifetime.end.p0(i64 16, ptr nonnull %13) #6
  call void @llvm.lifetime.end.p0(i64 8, ptr nonnull %12) #6
  call void @llvm.lifetime.end.p0(i64 64, ptr nonnull %11) #6
  call void @llvm.lifetime.end.p0(i64 256, ptr nonnull %10) #6
  ret i32 %.0
}